target datalayout = "e-m:e-p270:32:32-p271:32:32-p272:64:64-i64:64-i128:128-f80:128-n8:16:32:64-S128"
target triple = "x86_64-pc-linux-gnu"

%struct.alts_frame_reader = type { ptr, [8 x i8], i64, i64, i64 }

; Function Attrs: mustprogress nounwind uwtable
define noundef zeroext i1 @_Z25alts_is_frame_reader_doneP17alts_frame_reader(ptr noundef %0) #2 {
  %2 = alloca ptr, align 8
  store ptr %0, ptr %2, align 8, !tbaa !26
  %3 = load ptr, ptr %2, align 8, !tbaa !26
  %4 = getelementptr inbounds nuw %struct.alts_frame_reader, ptr %3, i32 0, i32 0
  %5 = load ptr, ptr %4, align 8, !tbaa !28
  %6 = icmp eq ptr %5, null
  br i1 %6, label %19, label %7

7:                                                ; preds = %1
  %8 = load ptr, ptr %2, align 8, !tbaa !26
  %9 = getelementptr inbounds nuw %struct.alts_frame_reader, ptr %8, i32 0, i32 2
  %10 = load i64, ptr %9, align 8, !tbaa !30
  %11 = icmp eq i64 %10, 8
  br i1 %11, label %12, label %17

12:                                               ; preds = %7
  %13 = load ptr, ptr %2, align 8, !tbaa !26
  %14 = getelementptr inbounds nuw %struct.alts_frame_reader, ptr %13, i32 0, i32 4
  %15 = load i64, ptr %14, align 8, !tbaa !31
  %16 = icmp eq i64 %15, 0
  br label %17

17:                                               ; preds = %12, %7
  %18 = phi i1 [ false, %7 ], [ %16, %12 ]
  br label %19

19:                                               ; preds = %17, %1
  %20 = phi i1 [ true, %1 ], [ %18, %17 ]
  ret i1 %20
}