; Function Attrs: mustprogress nofree norecurse nosync nounwind willreturn memory(argmem: read) uwtable
define noundef zeroext i1 @_Z25alts_is_frame_reader_doneP17alts_frame_reader(ptr noundef readonly captures(none) %0) local_unnamed_addr #5 {
  %2 = load ptr, ptr %0, align 8, !tbaa !15
  %3 = icmp eq ptr %2, null
  br i1 %3, label %12, label %4

4:                                                ; preds = %1
  %5 = getelementptr inbounds nuw i8, ptr %0, i64 16
  %6 = load i64, ptr %5, align 8, !tbaa !17
  %7 = icmp eq i64 %6, 8
  br i1 %7, label %8, label %12

8:                                                ; preds = %4
  %9 = getelementptr inbounds nuw i8, ptr %0, i64 32
  %10 = load i64, ptr %9, align 8, !tbaa !18
  %11 = icmp eq i64 %10, 0
  br label %12

12:                                               ; preds = %4, %8, %1
  %13 = phi i1 [ true, %1 ], [ false, %4 ], [ %11, %8 ]
  ret i1 %13
}